target datalayout = "e-m:e-p270:32:32-p271:32:32-p272:64:64-i64:64-i128:128-f80:128-n8:16:32:64-S128"
target triple = "x86_64-pc-linux-gnu"

%"class.cvc5::internal::NodeTemplate" = type { ptr }
%"struct.std::_Rb_tree_header" = type { %"struct.std::_Rb_tree_node_base", i64 }
%"struct.std::_Rb_tree_node_base" = type { i32, ptr, ptr, ptr }
%"class.std::unordered_set" = type { %"class.std::_Hashtable" }
%"class.std::_Hashtable" = type { ptr, i64, %"struct.std::__detail::_Hash_node_base", i64, %"struct.std::__detail::_Prime_rehash_policy", ptr }
%"struct.std::__detail::_Hash_node_base" = type { ptr }
%"struct.std::__detail::_Prime_rehash_policy" = type { float, i64 }
%"class.std::map.23" = type { %"class.std::_Rb_tree.24" }
%"class.std::_Rb_tree.24" = type { %"struct.std::_Rb_tree<cvc5::internal::NodeTemplate<true>, std::pair<const cvc5::internal::NodeTemplate<true>, std::vector<cvc5::internal::NodeTemplate<true>>>, std::_Select1st<std::pair<const cvc5::internal::NodeTemplate<true>, std::vector<cvc5::internal::NodeTemplate<true>>>>, std::less<cvc5::internal::NodeTemplate<true>>>::_Rb_tree_impl" }
%"struct.std::_Rb_tree<cvc5::internal::NodeTemplate<true>, std::pair<const cvc5::internal::NodeTemplate<true>, std::vector<cvc5::internal::NodeTemplate<true>>>, std::_Select1st<std::pair<const cvc5::internal::NodeTemplate<true>, std::vector<cvc5::internal::NodeTemplate<true>>>>, std::less<cvc5::internal::NodeTemplate<true>>>::_Rb_tree_impl" = type { [8 x i8], %"struct.std::_Rb_tree_header" }
%"class.std::vector" = type { %"struct.std::_Vector_base" }
%"struct.std::_Vector_base" = type { %"struct.std::_Vector_base<cvc5::internal::NodeTemplate<true>, std::allocator<cvc5::internal::NodeTemplate<true>>>::_Vector_impl" }
%"struct.std::_Vector_base<cvc5::internal::NodeTemplate<true>, std::allocator<cvc5::internal::NodeTemplate<true>>>::_Vector_impl" = type { %"struct.std::_Vector_base<cvc5::internal::NodeTemplate<true>, std::allocator<cvc5::internal::NodeTemplate<true>>>::_Vector_impl_data" }
%"struct.std::_Vector_base<cvc5::internal::NodeTemplate<true>, std::allocator<cvc5::internal::NodeTemplate<true>>>::_Vector_impl_data" = type { ptr, ptr, ptr }
%"class.cvc5::internal::theory::quantifiers::SygusUnifRl::DecisionTreeInfo" = type { ptr, %"struct.std::pair.572", %"class.std::vector", %"class.std::vector", %"class.std::unordered_set", ptr, %"class.cvc5::internal::NodeTemplate", %"class.cvc5::internal::NodeTemplate", %"class.std::unordered_set", %"class.std::vector", %"class.cvc5::internal::NodeTemplate", ptr, i32, %"class.cvc5::internal::NodeTemplate", %"class.cvc5::internal::theory::quantifiers::SygusUnifRl::DecisionTreeInfo::PointSeparator" }
%"struct.std::pair.572" = type { %"class.cvc5::internal::NodeTemplate", %"class.cvc5::internal::NodeTemplate" }
%"class.cvc5::internal::theory::quantifiers::SygusUnifRl::DecisionTreeInfo::PointSeparator" = type { %"class.cvc5::internal::theory::quantifiers::LazyTrieEvaluator", %"class.cvc5::internal::theory::quantifiers::LazyTrieMulti", ptr, %"class.std::map.579" }
%"class.cvc5::internal::theory::quantifiers::LazyTrieEvaluator" = type { ptr }
%"class.cvc5::internal::theory::quantifiers::LazyTrieMulti" = type { %"class.std::map.23", %"class.cvc5::internal::theory::quantifiers::LazyTrie" }
%"class.cvc5::internal::theory::quantifiers::LazyTrie" = type { %"class.cvc5::internal::NodeTemplate", %"class.std::map.574" }
%"class.std::map.574" = type { %"class.std::_Rb_tree.575" }
%"class.std::_Rb_tree.575" = type { %"struct.std::_Rb_tree<cvc5::internal::NodeTemplate<true>, std::pair<const cvc5::internal::NodeTemplate<true>, cvc5::internal::theory::quantifiers::LazyTrie>, std::_Select1st<std::pair<const cvc5::internal::NodeTemplate<true>, cvc5::internal::theory::quantifiers::LazyTrie>>, std::less<cvc5::internal::NodeTemplate<true>>>::_Rb_tree_impl" }
%"struct.std::_Rb_tree<cvc5::internal::NodeTemplate<true>, std::pair<const cvc5::internal::NodeTemplate<true>, cvc5::internal::theory::quantifiers::LazyTrie>, std::_Select1st<std::pair<const cvc5::internal::NodeTemplate<true>, cvc5::internal::theory::quantifiers::LazyTrie>>, std::less<cvc5::internal::NodeTemplate<true>>>::_Rb_tree_impl" = type { [8 x i8], %"struct.std::_Rb_tree_header" }
%"class.std::map.579" = type { %"class.std::_Rb_tree.580" }
%"class.std::_Rb_tree.580" = type { %"struct.std::_Rb_tree<std::pair<cvc5::internal::NodeTemplate<true>, cvc5::internal::NodeTemplate<true>>, std::pair<const std::pair<cvc5::internal::NodeTemplate<true>, cvc5::internal::NodeTemplate<true>>, cvc5::internal::NodeTemplate<true>>, std::_Select1st<std::pair<const std::pair<cvc5::internal::NodeTemplate<true>, cvc5::internal::NodeTemplate<true>>, cvc5::internal::NodeTemplate<true>>>, std::less<std::pair<cvc5::internal::NodeTemplate<true>, cvc5::internal::NodeTemplate<true>>>>::_Rb_tree_impl" }
%"struct.std::_Rb_tree<std::pair<cvc5::internal::NodeTemplate<true>, cvc5::internal::NodeTemplate<true>>, std::pair<const std::pair<cvc5::internal::NodeTemplate<true>, cvc5::internal::NodeTemplate<true>>, cvc5::internal::NodeTemplate<true>>, std::_Select1st<std::pair<const std::pair<cvc5::internal::NodeTemplate<true>, cvc5::internal::NodeTemplate<true>>, cvc5::internal::NodeTemplate<true>>>, std::less<std::pair<cvc5::internal::NodeTemplate<true>, cvc5::internal::NodeTemplate<true>>>>::_Rb_tree_impl" = type { [8 x i8], %"struct.std::_Rb_tree_header" }

; Function Attrs: mustprogress uwtable
define linkonce_odr hidden void @_ZN4cvc58internal4expr9NodeValue3incEv(ptr noundef nonnull align 8 dereferenceable(24) %0) #4 comdat align 2 {
  %2 = alloca ptr, align 8
  store ptr %0, ptr %2, align 8, !tbaa !403
  %3 = load ptr, ptr %2, align 8
  %4 = load i64, ptr %3, align 8
  %5 = lshr i64 %4, 40
  %6 = and i64 %5, 1048575
  %7 = trunc i64 %6 to i32
  %8 = icmp ult i32 %7, 1048574
  %9 = zext i1 %8 to i64
  %10 = call i64 @llvm.expect.i64(i64 %9, i64 1)
  %11 = icmp ne i64 %10, 0
  br i1 %11, label %12, label %24

12:                                               ; preds = %1
  %13 = load i64, ptr %3, align 8
  %14 = lshr i64 %13, 40
  %15 = and i64 %14, 1048575
  %16 = trunc i64 %15 to i32
  %17 = add i32 %16, 1
  %18 = zext i32 %17 to i64
  %19 = load i64, ptr %3, align 8
  %20 = and i64 %18, 1048575
  %21 = shl i64 %20, 40
  %22 = and i64 %19, -1152920405095219201
  %23 = or i64 %22, %21
  store i64 %23, ptr %3, align 8
  br label %46

24:                                               ; preds = %1
  %25 = load i64, ptr %3, align 8
  %26 = lshr i64 %25, 40
  %27 = and i64 %26, 1048575
  %28 = trunc i64 %27 to i32
  %29 = icmp eq i32 %28, 1048574
  %30 = zext i1 %29 to i64
  %31 = call i64 @llvm.expect.i64(i64 %30, i64 0)
  %32 = icmp ne i64 %31, 0
  br i1 %32, label %33, label %45

33:                                               ; preds = %24
  %34 = load i64, ptr %3, align 8
  %35 = lshr i64 %34, 40
  %36 = and i64 %35, 1048575
  %37 = trunc i64 %36 to i32
  %38 = add i32 %37, 1
  %39 = zext i32 %38 to i64
  %40 = load i64, ptr %3, align 8
  %41 = and i64 %39, 1048575
  %42 = shl i64 %41, 40
  %43 = and i64 %40, -1152920405095219201
  %44 = or i64 %43, %42
  store i64 %44, ptr %3, align 8
  call void @_ZN4cvc58internal4expr9NodeValue20markRefCountMaxedOutEv(ptr noundef nonnull align 8 dereferenceable(24) %3)
  br label %45

45:                                               ; preds = %33, %24
  br label %46

46:                                               ; preds = %45, %12
  ret void
}

; Function Attrs: mustprogress uwtable
define linkonce_odr hidden void @_ZN4cvc58internal12NodeTemplateILb1EEC2ERKS2_(ptr noundef nonnull align 8 dereferenceable(8) %0, ptr noundef nonnull align 8 dereferenceable(8) %1) unnamed_addr #4 comdat align 2 {
  %3 = alloca ptr, align 8
  %4 = alloca ptr, align 8
  store ptr %0, ptr %3, align 8, !tbaa !74
  store ptr %1, ptr %4, align 8, !tbaa !74
  %5 = load ptr, ptr %3, align 8
  %6 = load ptr, ptr %4, align 8, !tbaa !74
  %7 = getelementptr inbounds nuw %"class.cvc5::internal::NodeTemplate", ptr %6, i32 0, i32 0
  %8 = load ptr, ptr %7, align 8, !tbaa !309
  %9 = getelementptr inbounds nuw %"class.cvc5::internal::NodeTemplate", ptr %5, i32 0, i32 0
  store ptr %8, ptr %9, align 8, !tbaa !309
  %10 = getelementptr inbounds nuw %"class.cvc5::internal::NodeTemplate", ptr %5, i32 0, i32 0
  %11 = load ptr, ptr %10, align 8, !tbaa !309
  call void @_ZN4cvc58internal4expr9NodeValue3incEv(ptr noundef nonnull align 8 dereferenceable(24) %11)
  ret void
}

; Function Attrs: mustprogress nounwind uwtable
define linkonce_odr hidden noundef nonnull align 8 dereferenceable(8) ptr @_ZNSt6vectorIN4cvc58internal12NodeTemplateILb1EEESaIS3_EEixEm(ptr noundef nonnull align 8 dereferenceable(24) %0, i64 noundef %1) #5 comdat align 2 {
  %3 = alloca ptr, align 8
  %4 = alloca i64, align 8
  store ptr %0, ptr %3, align 8, !tbaa !69
  store i64 %1, ptr %4, align 8, !tbaa !359
  %5 = load ptr, ptr %3, align 8
  %6 = getelementptr inbounds nuw %"struct.std::_Vector_base", ptr %5, i32 0, i32 0
  %7 = getelementptr inbounds nuw %"struct.std::_Vector_base<cvc5::internal::NodeTemplate<true>, std::allocator<cvc5::internal::NodeTemplate<true>>>::_Vector_impl_data", ptr %6, i32 0, i32 0
  %8 = load ptr, ptr %7, align 8, !tbaa !71
  %9 = load i64, ptr %4, align 8, !tbaa !359
  %10 = getelementptr inbounds nuw %"class.cvc5::internal::NodeTemplate", ptr %8, i64 %9
  ret ptr %10
}

; Function Attrs: mustprogress uwtable
define hidden void @_ZN4cvc58internal6theory11quantifiers11SygusUnifRl16DecisionTreeInfo14PointSeparator8evaluateENS0_12NodeTemplateILb1EEEj(ptr dead_on_unwind noalias writable sret(%"class.cvc5::internal::NodeTemplate") align 8 %0, ptr noundef nonnull align 8 dereferenceable(168) %1, ptr noundef %2, i32 noundef %3) unnamed_addr #4 align 2 personality ptr @__gxx_personality_v0 {
  %5 = alloca ptr, align 8
  %6 = alloca ptr, align 8
  %7 = alloca ptr, align 8
  %8 = alloca i32, align 4
  %9 = alloca %"class.cvc5::internal::NodeTemplate", align 8
  %10 = alloca %"class.cvc5::internal::NodeTemplate", align 8
  %11 = alloca ptr, align 8
  %12 = alloca i32, align 4
  %13 = alloca %"class.cvc5::internal::NodeTemplate", align 8
  store ptr %0, ptr %5, align 8
  store ptr %1, ptr %6, align 8, !tbaa !536
  store ptr %2, ptr %7, align 8, !tbaa !74
  store i32 %3, ptr %8, align 4, !tbaa !305
  %14 = load ptr, ptr %6, align 8
  call void @llvm.lifetime.start.p0(i64 8, ptr %9) #3
  %15 = getelementptr inbounds nuw %"class.cvc5::internal::theory::quantifiers::SygusUnifRl::DecisionTreeInfo::PointSeparator", ptr %14, i32 0, i32 2
  %16 = load ptr, ptr %15, align 8, !tbaa !538
  %17 = getelementptr inbounds nuw %"class.cvc5::internal::theory::quantifiers::SygusUnifRl::DecisionTreeInfo", ptr %16, i32 0, i32 2
  %18 = load i32, ptr %8, align 4, !tbaa !305
  %19 = zext i32 %18 to i64
  %20 = call noundef nonnull align 8 dereferenceable(8) ptr @_ZNSt6vectorIN4cvc58internal12NodeTemplateILb1EEESaIS3_EEixEm(ptr noundef nonnull align 8 dereferenceable(24) %17, i64 noundef %19) #3
  call void @_ZN4cvc58internal12NodeTemplateILb1EEC2ERKS2_(ptr noundef nonnull align 8 dereferenceable(8) %9, ptr noundef nonnull align 8 dereferenceable(8) %20)
  invoke void @_ZN4cvc58internal12NodeTemplateILb1EEC2ERKS2_(ptr noundef nonnull align 8 dereferenceable(8) %10, ptr noundef nonnull align 8 dereferenceable(8) %9)
          to label %21 unwind label %24

21:                                               ; preds = %4
  invoke void @_ZN4cvc58internal12NodeTemplateILb1EEC2ERKS2_(ptr noundef nonnull align 8 dereferenceable(8) %13, ptr noundef nonnull align 8 dereferenceable(8) %2)
          to label %22 unwind label %28

22:                                               ; preds = %21
  invoke void @_ZN4cvc58internal6theory11quantifiers11SygusUnifRl16DecisionTreeInfo14PointSeparator11computeCondENS0_12NodeTemplateILb1EEES7_(ptr dead_on_unwind writable sret(%"class.cvc5::internal::NodeTemplate") align 8 %0, ptr noundef nonnull align 8 dereferenceable(168) %14, ptr noundef %10, ptr noundef %13)
          to label %23 unwind label %32

23:                                               ; preds = %22
  call void @_ZN4cvc58internal12NodeTemplateILb1EED2Ev(ptr noundef nonnull align 8 dereferenceable(8) %13) #3
  call void @_ZN4cvc58internal12NodeTemplateILb1EED2Ev(ptr noundef nonnull align 8 dereferenceable(8) %10) #3
  call void @_ZN4cvc58internal12NodeTemplateILb1EED2Ev(ptr noundef nonnull align 8 dereferenceable(8) %9) #3
  call void @llvm.lifetime.end.p0(i64 8, ptr %9) #3
  ret void

24:                                               ; preds = %4
  %25 = landingpad { ptr, i32 }
          cleanup
  %26 = extractvalue { ptr, i32 } %25, 0
  store ptr %26, ptr %11, align 8
  %27 = extractvalue { ptr, i32 } %25, 1
  store i32 %27, ptr %12, align 4
  br label %37

28:                                               ; preds = %21
  %29 = landingpad { ptr, i32 }
          cleanup
  %30 = extractvalue { ptr, i32 } %29, 0
  store ptr %30, ptr %11, align 8
  %31 = extractvalue { ptr, i32 } %29, 1
  store i32 %31, ptr %12, align 4
  br label %36

32:                                               ; preds = %22
  %33 = landingpad { ptr, i32 }
          cleanup
  %34 = extractvalue { ptr, i32 } %33, 0
  store ptr %34, ptr %11, align 8
  %35 = extractvalue { ptr, i32 } %33, 1
  store i32 %35, ptr %12, align 4
  call void @_ZN4cvc58internal12NodeTemplateILb1EED2Ev(ptr noundef nonnull align 8 dereferenceable(8) %13) #3
  br label %36

36:                                               ; preds = %32, %28
  call void @_ZN4cvc58internal12NodeTemplateILb1EED2Ev(ptr noundef nonnull align 8 dereferenceable(8) %10) #3
  br label %37

37:                                               ; preds = %36, %24
  call void @_ZN4cvc58internal12NodeTemplateILb1EED2Ev(ptr noundef nonnull align 8 dereferenceable(8) %9) #3
  call void @llvm.lifetime.end.p0(i64 8, ptr %9) #3
  br label %38

38:                                               ; preds = %37
  %39 = load ptr, ptr %11, align 8
  %40 = load i32, ptr %12, align 4
  %41 = insertvalue { ptr, i32 } poison, ptr %39, 0
  %42 = insertvalue { ptr, i32 } %41, i32 %40, 1
  resume { ptr, i32 } %42
}