; Function Attrs: mustprogress uwtable
define hidden void @_ZN4cvc58internal6theory11quantifiers11SygusUnifRl16DecisionTreeInfo14PointSeparator8evaluateENS0_12NodeTemplateILb1EEEj(ptr dead_on_unwind noalias writable sret(%"class.cvc5::internal::NodeTemplate") align 8 %0, ptr noundef nonnull align 8 dereferenceable(168) %1, ptr noundef readonly captures(none) %2, i32 noundef %3) unnamed_addr #3 align 2 personality ptr @__gxx_personality_v0 {
  %5 = alloca %"class.cvc5::internal::NodeTemplate", align 8
  %6 = alloca %"class.cvc5::internal::NodeTemplate", align 8
  %7 = alloca %"class.cvc5::internal::NodeTemplate", align 8
  call void @llvm.lifetime.start.p0(i64 8, ptr nonnull %5) #29
  %8 = getelementptr inbounds nuw i8, ptr %1, i64 112
  %9 = load ptr, ptr %8, align 8, !tbaa !503
  %10 = getelementptr inbounds nuw i8, ptr %9, i64 24
  %11 = zext i32 %3 to i64
  %12 = load ptr, ptr %10, align 8, !tbaa !63
  %13 = getelementptr inbounds nuw %"class.cvc5::internal::NodeTemplate", ptr %12, i64 %11
  %14 = load ptr, ptr %13, align 8, !tbaa !65
  store ptr %14, ptr %5, align 8, !tbaa !65
  %15 = load i64, ptr %14, align 8
  %16 = lshr i64 %15, 40
  %17 = trunc nuw nsw i64 %16 to i32
  %18 = and i32 %17, 1048575
  %19 = icmp samesign ult i32 %18, 1048574
  br i1 %19, label %20, label %25, !prof !72

20:                                               ; preds = %4
  %21 = add i64 %15, 1099511627776
  %22 = and i64 %21, 1152920405095219200
  %23 = and i64 %15, -1152920405095219201
  %24 = or disjoint i64 %22, %23
  store i64 %24, ptr %14, align 8
  br label %_ZN4cvc58internal12NodeTemplateILb1EEC2ERKS2_.exit

25:                                               ; preds = %4
  %26 = icmp eq i32 %18, 1048574
  br i1 %26, label %27, label %_ZN4cvc58internal12NodeTemplateILb1EEC2ERKS2_.exit, !prof !68

27:                                               ; preds = %25
  %28 = or i64 %15, 1152920405095219200
  store i64 %28, ptr %14, align 8
  tail call void @_ZN4cvc58internal4expr9NodeValue20markRefCountMaxedOutEv(ptr noundef nonnull align 8 dereferenceable(24) %14)
  %.pre = load i64, ptr %14, align 8
  br label %_ZN4cvc58internal12NodeTemplateILb1EEC2ERKS2_.exit

_ZN4cvc58internal12NodeTemplateILb1EEC2ERKS2_.exit: ; preds = %20, %25, %27
  %29 = phi i64 [ %24, %20 ], [ %15, %25 ], [ %.pre, %27 ]
  store ptr %14, ptr %6, align 8, !tbaa !65
  %30 = lshr i64 %29, 40
  %31 = trunc nuw nsw i64 %30 to i32
  %32 = and i32 %31, 1048575
  %33 = icmp samesign ult i32 %32, 1048574
  br i1 %33, label %34, label %39, !prof !72

34:                                               ; preds = %_ZN4cvc58internal12NodeTemplateILb1EEC2ERKS2_.exit
  %35 = add i64 %29, 1099511627776
  %36 = and i64 %35, 1152920405095219200
  %37 = and i64 %29, -1152920405095219201
  %38 = or disjoint i64 %36, %37
  store i64 %38, ptr %14, align 8
  br label %_ZN4cvc58internal12NodeTemplateILb1EEC2ERKS2_.exit7

39:                                               ; preds = %_ZN4cvc58internal12NodeTemplateILb1EEC2ERKS2_.exit
  %40 = icmp eq i32 %32, 1048574
  br i1 %40, label %41, label %_ZN4cvc58internal12NodeTemplateILb1EEC2ERKS2_.exit7, !prof !68

41:                                               ; preds = %39
  %42 = or i64 %29, 1152920405095219200
  store i64 %42, ptr %14, align 8
  invoke void @_ZN4cvc58internal4expr9NodeValue20markRefCountMaxedOutEv(ptr noundef nonnull align 8 dereferenceable(24) %14)
          to label %_ZN4cvc58internal12NodeTemplateILb1EEC2ERKS2_.exit7 unwind label %97

_ZN4cvc58internal12NodeTemplateILb1EEC2ERKS2_.exit7: ; preds = %39, %34, %41
  %43 = load ptr, ptr %2, align 8, !tbaa !65
  store ptr %43, ptr %7, align 8, !tbaa !65
  %44 = load i64, ptr %43, align 8
  %45 = lshr i64 %44, 40
  %46 = trunc nuw nsw i64 %45 to i32
  %47 = and i32 %46, 1048575
  %48 = icmp samesign ult i32 %47, 1048574
  br i1 %48, label %49, label %54, !prof !72

49:                                               ; preds = %_ZN4cvc58internal12NodeTemplateILb1EEC2ERKS2_.exit7
  %50 = add i64 %44, 1099511627776
  %51 = and i64 %50, 1152920405095219200
  %52 = and i64 %44, -1152920405095219201
  %53 = or disjoint i64 %51, %52
  store i64 %53, ptr %43, align 8
  br label %_ZN4cvc58internal12NodeTemplateILb1EEC2ERKS2_.exit9

54:                                               ; preds = %_ZN4cvc58internal12NodeTemplateILb1EEC2ERKS2_.exit7
  %55 = icmp eq i32 %47, 1048574
  br i1 %55, label %56, label %_ZN4cvc58internal12NodeTemplateILb1EEC2ERKS2_.exit9, !prof !68

56:                                               ; preds = %54
  %57 = or i64 %44, 1152920405095219200
  store i64 %57, ptr %43, align 8
  invoke void @_ZN4cvc58internal4expr9NodeValue20markRefCountMaxedOutEv(ptr noundef nonnull align 8 dereferenceable(24) %43)
          to label %_ZN4cvc58internal12NodeTemplateILb1EEC2ERKS2_.exit9 unwind label %99

_ZN4cvc58internal12NodeTemplateILb1EEC2ERKS2_.exit9: ; preds = %54, %49, %56
  invoke void @_ZN4cvc58internal6theory11quantifiers11SygusUnifRl16DecisionTreeInfo14PointSeparator11computeCondENS0_12NodeTemplateILb1EEES7_(ptr dead_on_unwind writable sret(%"class.cvc5::internal::NodeTemplate") align 8 %0, ptr noundef nonnull align 8 dereferenceable(168) %1, ptr noundef nonnull %6, ptr noundef nonnull %7)
          to label %58 unwind label %101

58:                                               ; preds = %_ZN4cvc58internal12NodeTemplateILb1EEC2ERKS2_.exit9
  %59 = load ptr, ptr %7, align 8, !tbaa !65
  %60 = load i64, ptr %59, align 8
  %61 = and i64 %60, 1152920405095219200
  %.not.i.i = icmp eq i64 %61, 1152920405095219200
  br i1 %.not.i.i, label %_ZN4cvc58internal12NodeTemplateILb1EED2Ev.exit, label %62, !prof !68

62:                                               ; preds = %58
  %63 = add i64 %60, 1152920405095219200
  %64 = and i64 %63, 1152920405095219200
  %65 = and i64 %60, -1152920405095219201
  %66 = or disjoint i64 %64, %65
  store i64 %66, ptr %59, align 8
  %67 = icmp eq i64 %64, 0
  br i1 %67, label %68, label %_ZN4cvc58internal12NodeTemplateILb1EED2Ev.exit, !prof !68

68:                                               ; preds = %62
  invoke void @_ZN4cvc58internal4expr9NodeValue15markForDeletionEv(ptr noundef nonnull align 8 dereferenceable(24) %59)
          to label %_ZN4cvc58internal12NodeTemplateILb1EED2Ev.exit unwind label %69

69:                                               ; preds = %68
  %70 = landingpad { ptr, i32 }
          catch ptr null
  %71 = extractvalue { ptr, i32 } %70, 0
  call void @__clang_call_terminate(ptr %71) #27
  unreachable

_ZN4cvc58internal12NodeTemplateILb1EED2Ev.exit:   ; preds = %58, %62, %68
  %72 = load ptr, ptr %6, align 8, !tbaa !65
  %73 = load i64, ptr %72, align 8
  %74 = and i64 %73, 1152920405095219200
  %.not.i.i10 = icmp eq i64 %74, 1152920405095219200
  br i1 %.not.i.i10, label %_ZN4cvc58internal12NodeTemplateILb1EED2Ev.exit11, label %75, !prof !68

75:                                               ; preds = %_ZN4cvc58internal12NodeTemplateILb1EED2Ev.exit
  %76 = add i64 %73, 1152920405095219200
  %77 = and i64 %76, 1152920405095219200
  %78 = and i64 %73, -1152920405095219201
  %79 = or disjoint i64 %77, %78
  store i64 %79, ptr %72, align 8
  %80 = icmp eq i64 %77, 0
  br i1 %80, label %81, label %_ZN4cvc58internal12NodeTemplateILb1EED2Ev.exit11, !prof !68

81:                                               ; preds = %75
  invoke void @_ZN4cvc58internal4expr9NodeValue15markForDeletionEv(ptr noundef nonnull align 8 dereferenceable(24) %72)
          to label %_ZN4cvc58internal12NodeTemplateILb1EED2Ev.exit11 unwind label %82

82:                                               ; preds = %81
  %83 = landingpad { ptr, i32 }
          catch ptr null
  %84 = extractvalue { ptr, i32 } %83, 0
  call void @__clang_call_terminate(ptr %84) #27
  unreachable

_ZN4cvc58internal12NodeTemplateILb1EED2Ev.exit11: ; preds = %_ZN4cvc58internal12NodeTemplateILb1EED2Ev.exit, %75, %81
  %85 = load i64, ptr %14, align 8
  %86 = and i64 %85, 1152920405095219200
  %.not.i.i12 = icmp eq i64 %86, 1152920405095219200
  br i1 %.not.i.i12, label %_ZN4cvc58internal12NodeTemplateILb1EED2Ev.exit13, label %87, !prof !68

87:                                               ; preds = %_ZN4cvc58internal12NodeTemplateILb1EED2Ev.exit11
  %88 = add i64 %85, 1152920405095219200
  %89 = and i64 %88, 1152920405095219200
  %90 = and i64 %85, -1152920405095219201
  %91 = or disjoint i64 %89, %90
  store i64 %91, ptr %14, align 8
  %92 = icmp eq i64 %89, 0
  br i1 %92, label %93, label %_ZN4cvc58internal12NodeTemplateILb1EED2Ev.exit13, !prof !68

93:                                               ; preds = %87
  invoke void @_ZN4cvc58internal4expr9NodeValue15markForDeletionEv(ptr noundef nonnull align 8 dereferenceable(24) %14)
          to label %_ZN4cvc58internal12NodeTemplateILb1EED2Ev.exit13 unwind label %94

94:                                               ; preds = %93
  %95 = landingpad { ptr, i32 }
          catch ptr null
  %96 = extractvalue { ptr, i32 } %95, 0
  call void @__clang_call_terminate(ptr %96) #27
  unreachable

_ZN4cvc58internal12NodeTemplateILb1EED2Ev.exit13: ; preds = %_ZN4cvc58internal12NodeTemplateILb1EED2Ev.exit11, %87, %93
  call void @llvm.lifetime.end.p0(i64 8, ptr nonnull %5) #29
  ret void

97:                                               ; preds = %41
  %98 = landingpad { ptr, i32 }
          cleanup
  br label %104

99:                                               ; preds = %56
  %100 = landingpad { ptr, i32 }
          cleanup
  br label %103

101:                                              ; preds = %_ZN4cvc58internal12NodeTemplateILb1EEC2ERKS2_.exit9
  %102 = landingpad { ptr, i32 }
          cleanup
  call void @_ZN4cvc58internal12NodeTemplateILb1EED2Ev(ptr noundef nonnull align 8 dereferenceable(8) %7) #29
  br label %103

103:                                              ; preds = %101, %99
  %.pn = phi { ptr, i32 } [ %102, %101 ], [ %100, %99 ]
  call void @_ZN4cvc58internal12NodeTemplateILb1EED2Ev(ptr noundef nonnull align 8 dereferenceable(8) %6) #29
  br label %104

104:                                              ; preds = %103, %97
  %.pn.pn = phi { ptr, i32 } [ %.pn, %103 ], [ %98, %97 ]
  call void @_ZN4cvc58internal12NodeTemplateILb1EED2Ev(ptr noundef nonnull align 8 dereferenceable(8) %5) #29
  call void @llvm.lifetime.end.p0(i64 8, ptr nonnull %5) #29
  resume { ptr, i32 } %.pn.pn
}